; Function Attrs: nounwind sspstrong uwtable
define dso_local void @iov_hexdump(ptr noundef readonly captures(none) %iov, i32 noundef %iov_cnt, ptr noundef %fp, ptr noundef %prefix, i64 noundef %limit) local_unnamed_addr #0 {
entry:
  %cmp16.not = icmp eq i32 %iov_cnt, 0
  br i1 %cmp16.not, label %for.end, label %for.body

for.body:                                         ; preds = %entry, %for.body
  %v.018 = phi i32 [ %inc, %for.body ], [ 0, %entry ]
  %size.017 = phi i64 [ %add, %for.body ], [ 0, %entry ]
  %idxprom = sext i32 %v.018 to i64
  %iov_len = getelementptr %struct.iovec, ptr %iov, i64 %idxprom, i32 1
  %0 = load i64, ptr %iov_len, align 8
  %add = add i64 %0, %size.017
  %inc = add nuw i32 %v.018, 1
  %exitcond.not = icmp eq i32 %inc, %iov_cnt
  br i1 %exitcond.not, label %for.end, label %for.body, !llvm.loop !15

for.end:                                          ; preds = %for.body, %entry
  %size.0.lcssa = phi i64 [ 0, %entry ], [ %add, %for.body ]
  %cond = tail call i64 @llvm.umin.i64(i64 %size.0.lcssa, i64 %limit)
  %call = tail call noalias ptr @g_malloc(i64 noundef %cond) #21
  %tobool.i = icmp ne i32 %iov_cnt, 0
  %or.cond25.i.i = icmp ne i64 %cond, 0
  %or.cond2227.i.i = and i1 %tobool.i, %or.cond25.i.i
  br i1 %or.cond2227.i.i, label %for.body.preheader.i.i, label %iov_to_buf.exit

for.body.preheader.i.i:                           ; preds = %for.end
  %1 = zext i32 %iov_cnt to i64
  br label %for.body.i.i

for.body.i.i:                                     ; preds = %for.inc.i.i, %for.body.preheader.i.i
  %indvars.iv.i.i = phi i64 [ 0, %for.body.preheader.i.i ], [ %indvars.iv.next.i.i, %for.inc.i.i ]
  %done.029.i.i = phi i64 [ 0, %for.body.preheader.i.i ], [ %done.1.i.i, %for.inc.i.i ]
  %arrayidx.i.i = getelementptr %struct.iovec, ptr %iov, i64 %indvars.iv.i.i
  %iov_len.i.i = getelementptr inbounds nuw i8, ptr %arrayidx.i.i, i64 8
  %2 = load i64, ptr %iov_len.i.i, align 8
  %cmp2.i.i.not = icmp eq i64 %2, 0
  br i1 %cmp2.i.i.not, label %for.inc.i.i, label %if.then.i.i

if.then.i.i:                                      ; preds = %for.body.i.i
  %sub6.i.i = sub i64 %cond, %done.029.i.i
  %cond.i.i = tail call i64 @llvm.umin.i64(i64 %2, i64 %sub6.i.i)
  %add.ptr.i.i = getelementptr i8, ptr %call, i64 %done.029.i.i
  %3 = load ptr, ptr %arrayidx.i.i, align 8
  tail call void @llvm.memcpy.p0.p0.i64(ptr align 1 %add.ptr.i.i, ptr align 1 %3, i64 %cond.i.i, i1 false)
  %add.i.i = add i64 %cond.i.i, %done.029.i.i
  br label %for.inc.i.i

for.inc.i.i:                                      ; preds = %for.body.i.i, %if.then.i.i
  %done.1.i.i = phi i64 [ %add.i.i, %if.then.i.i ], [ %done.029.i.i, %for.body.i.i ]
  %indvars.iv.next.i.i = add nuw nsw i64 %indvars.iv.i.i, 1
  %cmp.i.i = icmp ult i64 %done.1.i.i, %cond
  %cmp1.i.i = icmp samesign ult i64 %indvars.iv.next.i.i, %1
  %or.cond22.i.i = select i1 %cmp.i.i, i1 %cmp1.i.i, i1 false
  br i1 %or.cond22.i.i, label %for.body.i.i, label %iov_to_buf.exit, !llvm.loop !7

iov_to_buf.exit:                                  ; preds = %for.inc.i.i, %for.end
  tail call void @qemu_hexdump(ptr noundef %fp, ptr noundef %prefix, ptr noundef %call, i64 noundef %cond) #19
  tail call void @g_free(ptr noundef %call) #19
  ret void
}